target datalayout = "e-m:e-p270:32:32-p271:32:32-p272:64:64-i64:64-i128:128-f80:128-n8:16:32:64-S128"
target triple = "x86_64-pc-linux-gnu"

%struct.AVChannelLayout = type { i32, i32, %union.anon.0, ptr }
%union.anon.0 = type { i64 }
%struct.AC3EncodeContext = type { ptr, %struct.AC3EncOptions, ptr, %struct.AudioDSPContext, ptr, %struct.MECmpContext, %struct.AC3DSPContext, ptr, ptr, [6 x %struct.AC3Block], i32, i32, i32, i32, i32, i32, i32, i32, i32, i32, i32, [2 x i16], i64, i64, i32, i32, i32, i32, i32, i32, i32, ptr, i32, i32, i32, i32, i32, i32, i32, i32, [7 x i32], i32, i32, i32, i32, i32, [18 x i8], i32, i32, i32, i32, i32, i32, %struct.AC3BitAllocParameters, i32, [7 x i32], [7 x i32], i32, i32, i32, [6 x ptr], ptr, ptr, ptr, ptr, ptr, ptr, ptr, ptr, ptr, ptr, ptr, [7 x [6 x i8]], [7 x i8], i32, [7 x [6 x i8]], [7 x [6 x ptr]], i32, ptr, ptr, %union.anon.1, %union.anon.2 }
%struct.AC3EncOptions = type { i32, i32, float, float, i32, i32, i32, i32, i32, i32, i32, i32, float, float, float, float, i32, i32, i32, i32, i32, i32, i32, i32, i32, i32 }
%struct.AudioDSPContext = type { ptr, ptr, ptr }
%struct.MECmpContext = type { ptr, [6 x ptr], [6 x ptr], [6 x ptr], [6 x ptr], [6 x ptr], [6 x ptr], [6 x ptr], [6 x ptr], [6 x ptr], [6 x ptr], [6 x ptr], [6 x ptr], [6 x ptr], [6 x ptr], [2 x [4 x ptr]], [6 x ptr] }
%struct.AC3DSPContext = type { ptr, ptr, ptr, ptr, ptr, ptr, ptr, ptr, i32, i32, ptr, ptr }
%struct.AC3Block = type { [7 x ptr], [7 x ptr], [7 x ptr], [7 x ptr], [7 x ptr], [7 x ptr], [7 x ptr], [7 x ptr], [7 x ptr], [7 x ptr], i8, i32, [4 x i8], i32, i32, [7 x i8], i32, [7 x i8], [7 x i8], i32, i32, [7 x i32] }
%struct.AC3BitAllocParameters = type { i32, i32, i32, i32, i32, i32, i32, i32, i32 }
%union.anon.1 = type { [256 x float] }
%union.anon.2 = type { [512 x float] }
%struct.AVCodecContext = type { ptr, i32, i32, ptr, i32, i32, ptr, ptr, ptr, i64, i32, i32, ptr, i32, %struct.AVRational, %struct.AVRational, %struct.AVRational, i32, i32, i32, i32, i32, %struct.AVRational, i32, i32, i32, i32, i32, i32, i32, i32, i32, i32, i32, ptr, ptr, i32, float, float, float, float, float, float, float, float, float, i32, i32, i32, i32, i32, i32, i32, i32, i32, i32, i32, i32, ptr, ptr, ptr, i32, i32, i32, i32, i32, i32, i32, i32, i32, i32, %struct.AVChannelLayout, i32, i32, i32, i32, i32, i32, i32, i32, ptr, i32, i32, i32, float, float, i32, i32, i32, i32, i32, ptr, i64, i64, float, float, i32, i32, ptr, ptr, i32, i32, i32, i32, i32, ptr, ptr, ptr, ptr, i32, i32, [8 x i64], i32, i32, i32, i32, i32, i32, i32, ptr, ptr, i32, i32, i32, i32, i32, i32, i32, i32, i32, i32, ptr, ptr, i32, i32, ptr, ptr, ptr, ptr, i32, i32, i64, i32, i32, i64, ptr, i64, ptr, i32, ptr, i32 }
%struct.AVRational = type { i32, i32 }

; Function Attrs: cold nounwind optsize uwtable
define i32 @ff_ac3_encode_close(ptr noundef %0) #4 {
  %2 = alloca ptr, align 8
  %3 = alloca ptr, align 8
  %4 = alloca i32, align 4
  store ptr %0, ptr %2, align 8, !tbaa !48
  call void @llvm.lifetime.start.p0(i64 8, ptr %3) #12
  %5 = load ptr, ptr %2, align 8, !tbaa !48
  %6 = getelementptr inbounds nuw %struct.AVCodecContext, ptr %5, i32 0, i32 6
  %7 = load ptr, ptr %6, align 8, !tbaa !54
  store ptr %7, ptr %3, align 8, !tbaa !4
  call void @llvm.lifetime.start.p0(i64 4, ptr %4) #12
  store i32 0, ptr %4, align 4, !tbaa !9
  br label %8

8:                                                ; preds = %21, %1
  %9 = load i32, ptr %4, align 4, !tbaa !9
  %10 = load ptr, ptr %3, align 8, !tbaa !4
  %11 = getelementptr inbounds nuw %struct.AC3EncodeContext, ptr %10, i32 0, i32 25
  %12 = load i32, ptr %11, align 4, !tbaa !123
  %13 = icmp slt i32 %9, %12
  br i1 %13, label %15, label %14

14:                                               ; preds = %8
  call void @llvm.lifetime.end.p0(i64 4, ptr %4) #12
  br label %24

15:                                               ; preds = %8
  %16 = load ptr, ptr %3, align 8, !tbaa !4
  %17 = getelementptr inbounds nuw %struct.AC3EncodeContext, ptr %16, i32 0, i32 60
  %18 = load i32, ptr %4, align 4, !tbaa !9
  %19 = sext i32 %18 to i64
  %20 = getelementptr inbounds [6 x ptr], ptr %17, i64 0, i64 %19
  call void @av_freep(ptr noundef %20)
  br label %21

21:                                               ; preds = %15
  %22 = load i32, ptr %4, align 4, !tbaa !9
  %23 = add nsw i32 %22, 1
  store i32 %23, ptr %4, align 4, !tbaa !9
  br label %8, !llvm.loop !136

24:                                               ; preds = %14
  %25 = load ptr, ptr %3, align 8, !tbaa !4
  %26 = getelementptr inbounds nuw %struct.AC3EncodeContext, ptr %25, i32 0, i32 61
  call void @av_freep(ptr noundef %26)
  %27 = load ptr, ptr %3, align 8, !tbaa !4
  %28 = getelementptr inbounds nuw %struct.AC3EncodeContext, ptr %27, i32 0, i32 62
  call void @av_freep(ptr noundef %28)
  %29 = load ptr, ptr %3, align 8, !tbaa !4
  %30 = getelementptr inbounds nuw %struct.AC3EncodeContext, ptr %29, i32 0, i32 63
  call void @av_freep(ptr noundef %30)
  %31 = load ptr, ptr %3, align 8, !tbaa !4
  %32 = getelementptr inbounds nuw %struct.AC3EncodeContext, ptr %31, i32 0, i32 64
  call void @av_freep(ptr noundef %32)
  %33 = load ptr, ptr %3, align 8, !tbaa !4
  %34 = getelementptr inbounds nuw %struct.AC3EncodeContext, ptr %33, i32 0, i32 65
  call void @av_freep(ptr noundef %34)
  %35 = load ptr, ptr %3, align 8, !tbaa !4
  %36 = getelementptr inbounds nuw %struct.AC3EncodeContext, ptr %35, i32 0, i32 66
  call void @av_freep(ptr noundef %36)
  %37 = load ptr, ptr %3, align 8, !tbaa !4
  %38 = getelementptr inbounds nuw %struct.AC3EncodeContext, ptr %37, i32 0, i32 67
  call void @av_freep(ptr noundef %38)
  %39 = load ptr, ptr %3, align 8, !tbaa !4
  %40 = getelementptr inbounds nuw %struct.AC3EncodeContext, ptr %39, i32 0, i32 68
  call void @av_freep(ptr noundef %40)
  %41 = load ptr, ptr %3, align 8, !tbaa !4
  %42 = getelementptr inbounds nuw %struct.AC3EncodeContext, ptr %41, i32 0, i32 69
  call void @av_freep(ptr noundef %42)
  %43 = load ptr, ptr %3, align 8, !tbaa !4
  %44 = getelementptr inbounds nuw %struct.AC3EncodeContext, ptr %43, i32 0, i32 70
  call void @av_freep(ptr noundef %44)
  %45 = load ptr, ptr %3, align 8, !tbaa !4
  %46 = getelementptr inbounds nuw %struct.AC3EncodeContext, ptr %45, i32 0, i32 71
  call void @av_freep(ptr noundef %46)
  %47 = load ptr, ptr %3, align 8, !tbaa !4
  %48 = getelementptr inbounds nuw %struct.AC3EncodeContext, ptr %47, i32 0, i32 4
  call void @av_freep(ptr noundef %48)
  %49 = load ptr, ptr %3, align 8, !tbaa !4
  %50 = getelementptr inbounds nuw %struct.AC3EncodeContext, ptr %49, i32 0, i32 7
  call void @av_tx_uninit(ptr noundef %50)
  call void @llvm.lifetime.end.p0(i64 8, ptr %3) #12
  ret i32 0
}