; Function Attrs: cold nounwind optsize uwtable
define noundef i32 @ff_ac3_encode_close(ptr noundef readonly captures(none) %0) local_unnamed_addr #4 {
  %2 = getelementptr inbounds nuw i8, ptr %0, i64 32
  %3 = load ptr, ptr %2, align 8, !tbaa !45
  %4 = getelementptr inbounds nuw i8, ptr %3, i64 5004
  %5 = load i32, ptr %4, align 4, !tbaa !81
  %6 = icmp sgt i32 %5, 0
  br i1 %6, label %.lr.ph, label %._crit_edge

.lr.ph:                                           ; preds = %1
  %7 = getelementptr inbounds nuw i8, ptr %3, i64 5272
  br label %21

._crit_edge:                                      ; preds = %21, %1
  %8 = getelementptr inbounds nuw i8, ptr %3, i64 5320
  tail call void @av_freep(ptr noundef nonnull %8) #14
  %9 = getelementptr inbounds nuw i8, ptr %3, i64 5328
  tail call void @av_freep(ptr noundef nonnull %9) #14
  %10 = getelementptr inbounds nuw i8, ptr %3, i64 5336
  tail call void @av_freep(ptr noundef nonnull %10) #14
  %11 = getelementptr inbounds nuw i8, ptr %3, i64 5344
  tail call void @av_freep(ptr noundef nonnull %11) #14
  %12 = getelementptr inbounds nuw i8, ptr %3, i64 5352
  tail call void @av_freep(ptr noundef nonnull %12) #14
  %13 = getelementptr inbounds nuw i8, ptr %3, i64 5360
  tail call void @av_freep(ptr noundef nonnull %13) #14
  %14 = getelementptr inbounds nuw i8, ptr %3, i64 5368
  tail call void @av_freep(ptr noundef nonnull %14) #14
  %15 = getelementptr inbounds nuw i8, ptr %3, i64 5376
  tail call void @av_freep(ptr noundef nonnull %15) #14
  %16 = getelementptr inbounds nuw i8, ptr %3, i64 5384
  tail call void @av_freep(ptr noundef nonnull %16) #14
  %17 = getelementptr inbounds nuw i8, ptr %3, i64 5392
  tail call void @av_freep(ptr noundef nonnull %17) #14
  %18 = getelementptr inbounds nuw i8, ptr %3, i64 5400
  tail call void @av_freep(ptr noundef nonnull %18) #14
  %19 = getelementptr inbounds nuw i8, ptr %3, i64 144
  tail call void @av_freep(ptr noundef nonnull %19) #14
  %20 = getelementptr inbounds nuw i8, ptr %3, i64 1032
  tail call void @av_tx_uninit(ptr noundef nonnull %20) #14
  ret i32 0

21:                                               ; preds = %.lr.ph, %21
  %indvars.iv = phi i64 [ 0, %.lr.ph ], [ %indvars.iv.next, %21 ]
  %22 = getelementptr inbounds nuw [6 x ptr], ptr %7, i64 0, i64 %indvars.iv
  tail call void @av_freep(ptr noundef nonnull %22) #14
  %indvars.iv.next = add nuw nsw i64 %indvars.iv, 1
  %23 = load i32, ptr %4, align 4, !tbaa !81
  %24 = sext i32 %23 to i64
  %25 = icmp slt i64 %indvars.iv.next, %24
  br i1 %25, label %21, label %._crit_edge, !llvm.loop !202
}